target datalayout = "e-m:e-p270:32:32-p271:32:32-p272:64:64-i64:64-i128:128-f80:128-n8:16:32:64-S128"
target triple = "x86_64-pc-linux-gnu"

%union.ListCell = type { ptr }
%struct.Node = type { i32 }
%struct.ForEachState = type { ptr, i32 }
%struct.List = type { i32, i32, i32, ptr, [0 x %union.ListCell] }
%struct.Query = type { i32, i32, i32, i64, i8, ptr, i32, i8, i8, i8, i8, i8, i8, i8, i8, i8, i8, i8, ptr, ptr, ptr, ptr, ptr, i32, ptr, ptr, i32, ptr, ptr, ptr, ptr, ptr, i8, ptr, ptr, ptr, ptr, ptr, ptr, ptr, i32, ptr, ptr, ptr, ptr, i32, i32 }
%struct.CallStmt = type { i32, ptr, ptr, ptr }

@.str.1 = private unnamed_addr constant [12 x i8] c"functions.c\00", align 1
@.str.4 = private unnamed_addr constant [75 x i8] c"calling procedures with output arguments is not supported in SQL functions\00", align 1
@__func__.check_sql_fn_statements = private unnamed_addr constant [24 x i8] c"check_sql_fn_statements\00", align 1

; Function Attrs: nounwind uwtable
define dso_local void @check_sql_fn_statements(ptr noundef %0) #0 {
  %2 = alloca ptr, align 8
  %3 = alloca ptr, align 8
  %4 = alloca %struct.ForEachState, align 8
  %5 = alloca i32, align 4
  %6 = alloca ptr, align 8
  %7 = alloca ptr, align 8
  %8 = alloca %struct.ForEachState, align 8
  %9 = alloca ptr, align 8
  %10 = alloca ptr, align 8
  store ptr %0, ptr %2, align 8
  call void @llvm.lifetime.start.p0(i64 8, ptr %3) #8
  call void @llvm.lifetime.start.p0(i64 16, ptr %4) #8
  %11 = getelementptr inbounds nuw %struct.ForEachState, ptr %4, i32 0, i32 0
  %12 = load ptr, ptr %2, align 8
  store ptr %12, ptr %11, align 8
  %13 = getelementptr inbounds nuw %struct.ForEachState, ptr %4, i32 0, i32 1
  store i32 0, ptr %13, align 8
  %14 = getelementptr i8, ptr %4, i64 12
  call void @llvm.memset.p0.i64(ptr align 4 %14, i8 0, i64 4, i1 false)
  br label %15

15:                                               ; preds = %115, %1
  %16 = getelementptr inbounds nuw %struct.ForEachState, ptr %4, i32 0, i32 0
  %17 = load ptr, ptr %16, align 8
  %18 = icmp ne ptr %17, null
  br i1 %18, label %19, label %36

19:                                               ; preds = %15
  %20 = getelementptr inbounds nuw %struct.ForEachState, ptr %4, i32 0, i32 1
  %21 = load i32, ptr %20, align 8
  %22 = getelementptr inbounds nuw %struct.ForEachState, ptr %4, i32 0, i32 0
  %23 = load ptr, ptr %22, align 8
  %24 = getelementptr inbounds nuw %struct.List, ptr %23, i32 0, i32 1
  %25 = load i32, ptr %24, align 4
  %26 = icmp slt i32 %21, %25
  br i1 %26, label %27, label %36

27:                                               ; preds = %19
  %28 = getelementptr inbounds nuw %struct.ForEachState, ptr %4, i32 0, i32 0
  %29 = load ptr, ptr %28, align 8
  %30 = getelementptr inbounds nuw %struct.List, ptr %29, i32 0, i32 3
  %31 = load ptr, ptr %30, align 8
  %32 = getelementptr inbounds nuw %struct.ForEachState, ptr %4, i32 0, i32 1
  %33 = load i32, ptr %32, align 8
  %34 = sext i32 %33 to i64
  %35 = getelementptr inbounds %union.ListCell, ptr %31, i64 %34
  store ptr %35, ptr %3, align 8
  br label %37

36:                                               ; preds = %19, %15
  store ptr null, ptr %3, align 8
  br label %37

37:                                               ; preds = %36, %27
  %38 = phi i32 [ 1, %27 ], [ 0, %36 ]
  %39 = icmp ne i32 %38, 0
  br i1 %39, label %41, label %40

40:                                               ; preds = %37
  store i32 2, ptr %5, align 4
  call void @llvm.lifetime.end.p0(i64 16, ptr %4) #8
  br label %119

41:                                               ; preds = %37
  call void @llvm.lifetime.start.p0(i64 8, ptr %6) #8
  %42 = load ptr, ptr %3, align 8
  %43 = load ptr, ptr %42, align 8
  store ptr %43, ptr %6, align 8
  call void @llvm.lifetime.start.p0(i64 8, ptr %7) #8
  call void @llvm.lifetime.start.p0(i64 16, ptr %8) #8
  %44 = getelementptr inbounds nuw %struct.ForEachState, ptr %8, i32 0, i32 0
  %45 = load ptr, ptr %6, align 8
  store ptr %45, ptr %44, align 8
  %46 = getelementptr inbounds nuw %struct.ForEachState, ptr %8, i32 0, i32 1
  store i32 0, ptr %46, align 8
  %47 = getelementptr i8, ptr %8, i64 12
  call void @llvm.memset.p0.i64(ptr align 4 %47, i8 0, i64 4, i1 false)
  br label %48

48:                                               ; preds = %110, %41
  %49 = getelementptr inbounds nuw %struct.ForEachState, ptr %8, i32 0, i32 0
  %50 = load ptr, ptr %49, align 8
  %51 = icmp ne ptr %50, null
  br i1 %51, label %52, label %69

52:                                               ; preds = %48
  %53 = getelementptr inbounds nuw %struct.ForEachState, ptr %8, i32 0, i32 1
  %54 = load i32, ptr %53, align 8
  %55 = getelementptr inbounds nuw %struct.ForEachState, ptr %8, i32 0, i32 0
  %56 = load ptr, ptr %55, align 8
  %57 = getelementptr inbounds nuw %struct.List, ptr %56, i32 0, i32 1
  %58 = load i32, ptr %57, align 4
  %59 = icmp slt i32 %54, %58
  br i1 %59, label %60, label %69

60:                                               ; preds = %52
  %61 = getelementptr inbounds nuw %struct.ForEachState, ptr %8, i32 0, i32 0
  %62 = load ptr, ptr %61, align 8
  %63 = getelementptr inbounds nuw %struct.List, ptr %62, i32 0, i32 3
  %64 = load ptr, ptr %63, align 8
  %65 = getelementptr inbounds nuw %struct.ForEachState, ptr %8, i32 0, i32 1
  %66 = load i32, ptr %65, align 8
  %67 = sext i32 %66 to i64
  %68 = getelementptr inbounds %union.ListCell, ptr %64, i64 %67
  store ptr %68, ptr %7, align 8
  br label %70

69:                                               ; preds = %52, %48
  store ptr null, ptr %7, align 8
  br label %70

70:                                               ; preds = %69, %60
  %71 = phi i32 [ 1, %60 ], [ 0, %69 ]
  %72 = icmp ne i32 %71, 0
  br i1 %72, label %74, label %73

73:                                               ; preds = %70
  store i32 5, ptr %5, align 4
  call void @llvm.lifetime.end.p0(i64 16, ptr %8) #8
  br label %114

74:                                               ; preds = %70
  call void @llvm.lifetime.start.p0(i64 8, ptr %9) #8
  %75 = load ptr, ptr %7, align 8
  %76 = load ptr, ptr %75, align 8
  store ptr %76, ptr %9, align 8
  %77 = load ptr, ptr %9, align 8
  %78 = getelementptr inbounds nuw %struct.Query, ptr %77, i32 0, i32 1
  %79 = load i32, ptr %78, align 4
  %80 = icmp eq i32 %79, 6
  br i1 %80, label %81, label %109

81:                                               ; preds = %74
  %82 = load ptr, ptr %9, align 8
  %83 = getelementptr inbounds nuw %struct.Query, ptr %82, i32 0, i32 5
  %84 = load ptr, ptr %83, align 8
  %85 = getelementptr inbounds nuw %struct.Node, ptr %84, i32 0, i32 0
  %86 = load i32, ptr %85, align 4
  %87 = icmp eq i32 %86, 212
  br i1 %87, label %88, label %109

88:                                               ; preds = %81
  call void @llvm.lifetime.start.p0(i64 8, ptr %10) #8
  %89 = load ptr, ptr %9, align 8
  %90 = getelementptr inbounds nuw %struct.Query, ptr %89, i32 0, i32 5
  %91 = load ptr, ptr %90, align 8
  store ptr %91, ptr %10, align 8
  %92 = load ptr, ptr %10, align 8
  %93 = getelementptr inbounds nuw %struct.CallStmt, ptr %92, i32 0, i32 3
  %94 = load ptr, ptr %93, align 8
  %95 = icmp ne ptr %94, null
  br i1 %95, label %96, label %108

96:                                               ; preds = %88
  br label %97

97:                                               ; preds = %96
  br i1 true, label %98, label %100

98:                                               ; preds = %97
  %99 = call zeroext i1 @errstart_cold(i32 noundef 21, ptr noundef null) #9
  br i1 %99, label %102, label %105

100:                                              ; preds = %97
  %101 = call zeroext i1 @errstart(i32 noundef 21, ptr noundef null)
  br i1 %101, label %102, label %105

102:                                              ; preds = %100, %98
  %103 = call i32 @errcode(i32 noundef 1088)
  %104 = call i32 (ptr, ...) @errmsg(ptr noundef @.str.4)
  call void @errfinish(ptr noundef @.str.1, i32 noundef 1563, ptr noundef @__func__.check_sql_fn_statements)
  br label %105

105:                                              ; preds = %102, %100, %98
  unreachable

106:                                              ; No predecessors!
  br label %107

107:                                              ; preds = %106
  br label %108

108:                                              ; preds = %107, %88
  call void @llvm.lifetime.end.p0(i64 8, ptr %10) #8
  br label %109

109:                                              ; preds = %108, %81, %74
  call void @llvm.lifetime.end.p0(i64 8, ptr %9) #8
  br label %110

110:                                              ; preds = %109
  %111 = getelementptr inbounds nuw %struct.ForEachState, ptr %8, i32 0, i32 1
  %112 = load i32, ptr %111, align 8
  %113 = add i32 %112, 1
  store i32 %113, ptr %111, align 8
  br label %48, !llvm.loop !21

114:                                              ; preds = %73
  call void @llvm.lifetime.end.p0(i64 8, ptr %7) #8
  call void @llvm.lifetime.end.p0(i64 8, ptr %6) #8
  br label %115

115:                                              ; preds = %114
  %116 = getelementptr inbounds nuw %struct.ForEachState, ptr %4, i32 0, i32 1
  %117 = load i32, ptr %116, align 8
  %118 = add i32 %117, 1
  store i32 %118, ptr %116, align 8
  br label %15, !llvm.loop !22

119:                                              ; preds = %40
  call void @llvm.lifetime.end.p0(i64 8, ptr %3) #8
  ret void
}