; Function Attrs: nounwind uwtable
define dso_local void @check_sql_fn_statements(ptr noundef readonly captures(address_is_null) %0) local_unnamed_addr #0 {
  %.not = icmp eq ptr %0, null
  br i1 %.not, label %._crit_edge39, label %.lr.ph38

.lr.ph38:                                         ; preds = %1
  %2 = getelementptr inbounds nuw i8, ptr %0, i64 4
  %3 = load i32, ptr %2, align 4
  %4 = icmp sgt i32 %3, 0
  br i1 %4, label %.lr.ph45, label %._crit_edge39

.lr.ph45:                                         ; preds = %.lr.ph38
  %5 = getelementptr inbounds nuw i8, ptr %0, i64 16
  %6 = load ptr, ptr %5, align 8
  %wide.trip.count50 = zext nneg i32 %3 to i64
  br label %7

._crit_edge39:                                    ; preds = %._crit_edge, %.lr.ph38, %1
  ret void

7:                                                ; preds = %.lr.ph45, %._crit_edge
  %indvars.iv47 = phi i64 [ 0, %.lr.ph45 ], [ %indvars.iv.next48, %._crit_edge ]
  %8 = getelementptr inbounds nuw %union.ListCell, ptr %6, i64 %indvars.iv47
  %9 = load ptr, ptr %8, align 8
  %.not23 = icmp eq ptr %9, null
  br i1 %.not23, label %._crit_edge, label %.lr.ph

.lr.ph:                                           ; preds = %7
  %10 = getelementptr inbounds nuw i8, ptr %9, i64 4
  %11 = load i32, ptr %10, align 4
  %12 = icmp sgt i32 %11, 0
  br i1 %12, label %.lr.ph35, label %._crit_edge

.lr.ph35:                                         ; preds = %.lr.ph
  %13 = getelementptr inbounds nuw i8, ptr %9, i64 16
  %14 = load ptr, ptr %13, align 8
  %wide.trip.count = zext nneg i32 %11 to i64
  br label %15

._crit_edge:                                      ; preds = %32, %.lr.ph, %7
  %indvars.iv.next48 = add nuw nsw i64 %indvars.iv47, 1
  %exitcond51.not = icmp eq i64 %indvars.iv.next48, %wide.trip.count50
  br i1 %exitcond51.not, label %._crit_edge39, label %7

15:                                               ; preds = %.lr.ph35, %32
  %indvars.iv = phi i64 [ 0, %.lr.ph35 ], [ %indvars.iv.next, %32 ]
  %16 = getelementptr inbounds nuw %union.ListCell, ptr %14, i64 %indvars.iv
  %17 = load ptr, ptr %16, align 8
  %18 = getelementptr inbounds nuw i8, ptr %17, i64 4
  %19 = load i32, ptr %18, align 4
  %20 = icmp eq i32 %19, 6
  br i1 %20, label %21, label %32

21:                                               ; preds = %15
  %22 = getelementptr inbounds nuw i8, ptr %17, i64 32
  %23 = load ptr, ptr %22, align 8
  %24 = load i32, ptr %23, align 4
  %25 = icmp eq i32 %24, 212
  br i1 %25, label %26, label %32

26:                                               ; preds = %21
  %27 = getelementptr inbounds nuw i8, ptr %23, i64 24
  %28 = load ptr, ptr %27, align 8
  %.not25 = icmp eq ptr %28, null
  br i1 %.not25, label %32, label %.split

.split:                                           ; preds = %26
  %29 = tail call zeroext i1 @errstart_cold(i32 noundef 21, ptr noundef null) #12
  tail call void @llvm.assume(i1 %29)
  %30 = tail call i32 @errcode(i32 noundef 1088) #11
  %31 = tail call i32 (ptr, ...) @errmsg(ptr noundef nonnull @.str.4) #11
  tail call void @errfinish(ptr noundef nonnull @.str.1, i32 noundef 1563, ptr noundef nonnull @__func__.check_sql_fn_statements) #11
  unreachable

32:                                               ; preds = %26, %21, %15
  %indvars.iv.next = add nuw nsw i64 %indvars.iv, 1
  %exitcond.not = icmp eq i64 %indvars.iv.next, %wide.trip.count
  br i1 %exitcond.not, label %._crit_edge, label %15
}